; Function Attrs: mustprogress uwtable
define noundef i64 @_ZN7rocksdb21EncryptedWritableFile11GetFileSizeERKNS_9IOOptionsEPNS_14IODebugContextE(ptr noundef nonnull readonly align 8 captures(none) dereferenceable(64) %0, ptr noundef nonnull align 8 dereferenceable(84) %1, ptr noundef %2) unnamed_addr #3 align 2 {
  %4 = getelementptr inbounds nuw i8, ptr %0, i64 40
  %5 = load ptr, ptr %4, align 8, !tbaa !108
  %6 = load ptr, ptr %5, align 8, !tbaa !13
  %7 = getelementptr inbounds nuw i8, ptr %6, i64 144
  %8 = load ptr, ptr %7, align 8
  %9 = tail call noundef i64 %8(ptr noundef nonnull align 8 dereferenceable(33) %5, ptr noundef nonnull align 8 dereferenceable(84) %1, ptr noundef %2)
  %10 = getelementptr inbounds nuw i8, ptr %0, i64 56
  %11 = load i64, ptr %10, align 8, !tbaa !133
  %12 = sub i64 %9, %11
  ret i64 %12
}